; Function Attrs: mustprogress uwtable
define hidden void @_ZN3opt7context9fix_modelER3refI5modelE(ptr noundef nonnull align 8 dereferenceable(792) %this, ptr noundef nonnull align 8 dereferenceable(8) %mdl) unnamed_addr #3 align 2 {
entry:
  %0 = load ptr, ptr %mdl, align 8
  %cmp.i.not = icmp eq ptr %0, null
  br i1 %cmp.i.not, label %if.end, label %land.lhs.true

land.lhs.true:                                    ; preds = %entry
  %m_model_fixed = getelementptr inbounds i8, ptr %this, i64 624
  %1 = load ptr, ptr %m_model_fixed, align 8
  %cmp.i.i.i = icmp eq ptr %1, null
  br i1 %cmp.i.i.i, label %if.then, label %_ZNK15ref_vector_coreI5model21ref_unmanaged_wrapperIS0_EE4sizeEv.exit.i

_ZNK15ref_vector_coreI5model21ref_unmanaged_wrapperIS0_EE4sizeEv.exit.i: ; preds = %land.lhs.true
  %arrayidx.i.i.i = getelementptr inbounds i8, ptr %1, i64 -4
  %2 = load i32, ptr %arrayidx.i.i.i, align 4
  %cmp4.not.i = icmp eq i32 %2, 0
  br i1 %cmp4.not.i, label %if.then, label %for.body.preheader.i

for.body.preheader.i:                             ; preds = %_ZNK15ref_vector_coreI5model21ref_unmanaged_wrapperIS0_EE4sizeEv.exit.i
  %3 = zext i32 %2 to i64
  %4 = load ptr, ptr %1, align 8
  %cmp3.i8 = icmp eq ptr %4, %0
  br i1 %cmp3.i8, label %if.end, label %for.cond.i

for.cond.i:                                       ; preds = %for.body.preheader.i, %for.body.i
  %indvars.iv.i9 = phi i64 [ %indvars.iv.next.i, %for.body.i ], [ 0, %for.body.preheader.i ]
  %indvars.iv.next.i = add nuw nsw i64 %indvars.iv.i9, 1
  %exitcond.not.i = icmp eq i64 %indvars.iv.next.i, %3
  br i1 %exitcond.not.i, label %_ZNK15ref_vector_coreI5model21ref_unmanaged_wrapperIS0_EE8containsEPS0_.exit, label %for.body.i, !llvm.loop !30

for.body.i:                                       ; preds = %for.cond.i
  %arrayidx.i.i = getelementptr inbounds ptr, ptr %1, i64 %indvars.iv.next.i
  %5 = load ptr, ptr %arrayidx.i.i, align 8
  %cmp3.i = icmp eq ptr %5, %0
  br i1 %cmp3.i, label %_ZNK15ref_vector_coreI5model21ref_unmanaged_wrapperIS0_EE8containsEPS0_.exit, label %for.cond.i, !llvm.loop !30

_ZNK15ref_vector_coreI5model21ref_unmanaged_wrapperIS0_EE8containsEPS0_.exit: ; preds = %for.body.i, %for.cond.i
  %cmp.i5.le = icmp ult i64 %indvars.iv.next.i, %3
  br i1 %cmp.i5.le, label %if.end, label %if.then

if.then:                                          ; preds = %land.lhs.true, %_ZNK15ref_vector_coreI5model21ref_unmanaged_wrapperIS0_EE4sizeEv.exit.i, %_ZNK15ref_vector_coreI5model21ref_unmanaged_wrapperIS0_EE8containsEPS0_.exit
  %m_fm = getelementptr inbounds i8, ptr %this, i64 616
  %6 = load ptr, ptr %m_fm, align 8
  %vtable = load ptr, ptr %6, align 8
  %vfn = getelementptr inbounds i8, ptr %vtable, i64 32
  %7 = load ptr, ptr %vfn, align 8
  tail call void %7(ptr noundef nonnull align 8 dereferenceable(80) %6, ptr noundef nonnull align 8 dereferenceable(8) %mdl)
  %m_model_converter = getelementptr inbounds i8, ptr %this, i64 608
  tail call void @_Z5applyR3refI15model_converterERS_I5modelE(ptr noundef nonnull align 8 dereferenceable(8) %m_model_converter, ptr noundef nonnull align 8 dereferenceable(8) %mdl)
  %8 = load ptr, ptr %mdl, align 8
  %tobool.not.i.i.i = icmp eq ptr %8, null
  br i1 %tobool.not.i.i.i, label %_ZN15ref_vector_coreI5model21ref_unmanaged_wrapperIS0_EE7inc_refEPS0_.exit.i, label %if.then.i.i.i

if.then.i.i.i:                                    ; preds = %if.then
  %m_ref_count.i.i.i.i = getelementptr inbounds i8, ptr %8, i64 16
  %9 = load i32, ptr %m_ref_count.i.i.i.i, align 8
  %inc.i.i.i.i = add i32 %9, 1
  store i32 %inc.i.i.i.i, ptr %m_ref_count.i.i.i.i, align 8
  br label %_ZN15ref_vector_coreI5model21ref_unmanaged_wrapperIS0_EE7inc_refEPS0_.exit.i

_ZN15ref_vector_coreI5model21ref_unmanaged_wrapperIS0_EE7inc_refEPS0_.exit.i: ; preds = %if.then.i.i.i, %if.then
  %10 = load ptr, ptr %m_model_fixed, align 8
  %cmp.i.i = icmp eq ptr %10, null
  br i1 %cmp.i.i, label %if.then.i.i, label %lor.lhs.false.i.i

lor.lhs.false.i.i:                                ; preds = %_ZN15ref_vector_coreI5model21ref_unmanaged_wrapperIS0_EE7inc_refEPS0_.exit.i
  %arrayidx.i.i6 = getelementptr inbounds i8, ptr %10, i64 -4
  %11 = load i32, ptr %arrayidx.i.i6, align 4
  %arrayidx4.i.i = getelementptr inbounds i8, ptr %10, i64 -8
  %12 = load i32, ptr %arrayidx4.i.i, align 4
  %cmp5.i.i = icmp eq i32 %11, %12
  br i1 %cmp5.i.i, label %if.then.i.i, label %_ZN15ref_vector_coreI5model21ref_unmanaged_wrapperIS0_EE9push_backEPS0_.exit

if.then.i.i:                                      ; preds = %lor.lhs.false.i.i, %_ZN15ref_vector_coreI5model21ref_unmanaged_wrapperIS0_EE7inc_refEPS0_.exit.i
  tail call void @_ZN6vectorIP5modelLb0EjE13expand_vectorEv(ptr noundef nonnull align 8 dereferenceable(8) %m_model_fixed)
  %.pre.i.i = load ptr, ptr %m_model_fixed, align 8
  %arrayidx8.phi.trans.insert.i.i = getelementptr inbounds i8, ptr %.pre.i.i, i64 -4
  %.pre1.i.i = load i32, ptr %arrayidx8.phi.trans.insert.i.i, align 4
  br label %_ZN15ref_vector_coreI5model21ref_unmanaged_wrapperIS0_EE9push_backEPS0_.exit

_ZN15ref_vector_coreI5model21ref_unmanaged_wrapperIS0_EE9push_backEPS0_.exit: ; preds = %lor.lhs.false.i.i, %if.then.i.i
  %13 = phi i32 [ %.pre1.i.i, %if.then.i.i ], [ %11, %lor.lhs.false.i.i ]
  %14 = phi ptr [ %.pre.i.i, %if.then.i.i ], [ %10, %lor.lhs.false.i.i ]
  %idx.ext.i.i = zext i32 %13 to i64
  %add.ptr.i.i = getelementptr inbounds ptr, ptr %14, i64 %idx.ext.i.i
  store ptr %8, ptr %add.ptr.i.i, align 8
  %15 = load ptr, ptr %m_model_fixed, align 8
  %arrayidx10.i.i = getelementptr inbounds i8, ptr %15, i64 -4
  %16 = load i32, ptr %arrayidx10.i.i, align 4
  %inc.i.i = add i32 %16, 1
  store i32 %inc.i.i, ptr %arrayidx10.i.i, align 4
  br label %if.end

if.end:                                           ; preds = %for.body.preheader.i, %_ZN15ref_vector_coreI5model21ref_unmanaged_wrapperIS0_EE9push_backEPS0_.exit, %_ZNK15ref_vector_coreI5model21ref_unmanaged_wrapperIS0_EE8containsEPS0_.exit, %entry
  ret void
}